target datalayout = "e-m:e-p270:32:32-p271:32:32-p272:64:64-i64:64-i128:128-f80:128-n8:16:32:64-S128"
target triple = "x86_64-pc-linux-gnu"

%struct.rb_code_location_struct = type { %struct.rb_code_position_struct, %struct.rb_code_position_struct }
%struct.rb_code_position_struct = type { i32, i32 }
%struct.lex_context = type { i16, [2 x i8] }
%struct.parser_params = type { ptr, ptr, %struct.anon.12, i64, i64, i32, i32, i32, i32, i32, ptr, ptr, ptr, ptr, i32, i32, ptr, i64, ptr, ptr, ptr, ptr, i64, i64, %struct.anon.13, ptr, i32, ptr, i32, i64, %struct.lex_context, ptr, ptr, ptr, i32, i64, ptr, ptr, i32, ptr }
%struct.anon.12 = type { ptr, ptr, ptr, %struct.parser_string_buffer, ptr, ptr, ptr, ptr, ptr, ptr, i32, i32, i32, i32 }
%struct.parser_string_buffer = type { ptr, ptr }
%struct.anon.13 = type { ptr, i32, i32, i32, i32 }
%struct.RNode = type { i64, %struct.rb_code_location_struct, i32 }
%struct.RNode_CDECL = type { %struct.RNode, i64, ptr, ptr, i32 }

@.str.555 = private unnamed_addr constant [3 x i8] c"%s\00", align 1
@.str.888 = private unnamed_addr constant [28 x i8] c"dynamic constant assignment\00", align 1

; Function Attrs: inlinehint nounwind sspstrong uwtable
define internal void @nd_set_line(ptr noundef %0, i64 noundef %1) #2 {
  %3 = alloca ptr, align 8
  %4 = alloca i64, align 8
  store ptr %0, ptr %3, align 8, !tbaa !65
  store i64 %1, ptr %4, align 8, !tbaa !12
  %5 = load ptr, ptr %3, align 8, !tbaa !65
  %6 = getelementptr inbounds nuw %struct.RNode, ptr %5, i32 0, i32 0
  %7 = load i64, ptr %6, align 8, !tbaa !110
  %8 = and i64 %7, 32767
  store i64 %8, ptr %6, align 8, !tbaa !110
  %9 = load i64, ptr %4, align 8, !tbaa !12
  %10 = and i64 %9, 562949953421311
  %11 = shl i64 %10, 15
  %12 = load ptr, ptr %3, align 8, !tbaa !65
  %13 = getelementptr inbounds nuw %struct.RNode, ptr %12, i32 0, i32 0
  %14 = load i64, ptr %13, align 8, !tbaa !110
  %15 = or i64 %14, %11
  store i64 %15, ptr %13, align 8, !tbaa !110
  ret void
}

; Function Attrs: nounwind sspstrong uwtable
define internal i32 @parser_get_node_id(ptr noundef %0) #0 {
  %2 = alloca ptr, align 8
  %3 = alloca i32, align 4
  store ptr %0, ptr %2, align 8, !tbaa !7
  call void @llvm.lifetime.start.p0(i64 4, ptr %3) #26
  %4 = load ptr, ptr %2, align 8, !tbaa !7
  %5 = getelementptr inbounds nuw %struct.parser_params, ptr %4, i32 0, i32 26
  %6 = load i32, ptr %5, align 8, !tbaa !575
  store i32 %6, ptr %3, align 4, !tbaa !34
  %7 = load ptr, ptr %2, align 8, !tbaa !7
  %8 = getelementptr inbounds nuw %struct.parser_params, ptr %7, i32 0, i32 26
  %9 = load i32, ptr %8, align 8, !tbaa !575
  %10 = add i32 %9, 1
  store i32 %10, ptr %8, align 8, !tbaa !575
  %11 = load i32, ptr %3, align 4, !tbaa !34
  call void @llvm.lifetime.end.p0(i64 4, ptr %3) #26
  ret i32 %11
}

; Function Attrs: nounwind sspstrong uwtable
define internal ptr @nd_set_loc(ptr noundef %0, ptr noundef %1) #0 {
  %3 = alloca ptr, align 8
  %4 = alloca ptr, align 8
  store ptr %0, ptr %3, align 8, !tbaa !65
  store ptr %1, ptr %4, align 8, !tbaa !39
  %5 = load ptr, ptr %3, align 8, !tbaa !65
  %6 = getelementptr inbounds nuw %struct.RNode, ptr %5, i32 0, i32 1
  %7 = load ptr, ptr %4, align 8, !tbaa !39
  call void @llvm.memcpy.p0.p0.i64(ptr align 8 %6, ptr align 4 %7, i64 16, i1 false), !tbaa.struct !33
  %8 = load ptr, ptr %3, align 8, !tbaa !65
  %9 = load ptr, ptr %4, align 8, !tbaa !39
  %10 = getelementptr inbounds nuw %struct.rb_code_location_struct, ptr %9, i32 0, i32 0
  %11 = getelementptr inbounds nuw %struct.rb_code_position_struct, ptr %10, i32 0, i32 0
  %12 = load i32, ptr %11, align 4, !tbaa !173
  %13 = sext i32 %12 to i64
  call void @nd_set_line(ptr noundef %8, i64 noundef %13)
  %14 = load ptr, ptr %3, align 8, !tbaa !65
  ret ptr %14
}

; Function Attrs: nounwind sspstrong uwtable
define internal ptr @node_new_internal(ptr noundef %0, i32 noundef %1, i64 noundef %2, i64 noundef %3) #0 {
  %5 = alloca ptr, align 8
  %6 = alloca i32, align 4
  %7 = alloca i64, align 8
  %8 = alloca i64, align 8
  %9 = alloca ptr, align 8
  store ptr %0, ptr %5, align 8, !tbaa !7
  store i32 %1, ptr %6, align 4, !tbaa !34
  store i64 %2, ptr %7, align 8, !tbaa !12
  store i64 %3, ptr %8, align 8, !tbaa !12
  call void @llvm.lifetime.start.p0(i64 8, ptr %9) #26
  %10 = load ptr, ptr %5, align 8, !tbaa !7
  %11 = getelementptr inbounds nuw %struct.parser_params, ptr %10, i32 0, i32 25
  %12 = load ptr, ptr %11, align 8, !tbaa !107
  %13 = load i32, ptr %6, align 4, !tbaa !34
  %14 = load i64, ptr %7, align 8, !tbaa !12
  %15 = load i64, ptr %8, align 8, !tbaa !12
  %16 = call ptr @rb_ast_newnode(ptr noundef %12, i32 noundef %13, i64 noundef %14, i64 noundef %15)
  store ptr %16, ptr %9, align 8, !tbaa !65
  %17 = load ptr, ptr %9, align 8, !tbaa !65
  %18 = load i32, ptr %6, align 4, !tbaa !34
  call void @rb_node_init(ptr noundef %17, i32 noundef %18)
  %19 = load ptr, ptr %9, align 8, !tbaa !65
  call void @llvm.lifetime.end.p0(i64 8, ptr %9) #26
  ret ptr %19
}

; Function Attrs: nounwind sspstrong uwtable
define internal ptr @node_newnode(ptr noundef %0, i32 noundef %1, i64 noundef %2, i64 noundef %3, ptr noundef %4) #0 {
  %6 = alloca ptr, align 8
  %7 = alloca i32, align 4
  %8 = alloca i64, align 8
  %9 = alloca i64, align 8
  %10 = alloca ptr, align 8
  %11 = alloca ptr, align 8
  store ptr %0, ptr %6, align 8, !tbaa !7
  store i32 %1, ptr %7, align 4, !tbaa !34
  store i64 %2, ptr %8, align 8, !tbaa !12
  store i64 %3, ptr %9, align 8, !tbaa !12
  store ptr %4, ptr %10, align 8, !tbaa !39
  call void @llvm.lifetime.start.p0(i64 8, ptr %11) #26
  %12 = load ptr, ptr %6, align 8, !tbaa !7
  %13 = load i32, ptr %7, align 4, !tbaa !34
  %14 = load i64, ptr %8, align 8, !tbaa !12
  %15 = load i64, ptr %9, align 8, !tbaa !12
  %16 = call ptr @node_new_internal(ptr noundef %12, i32 noundef %13, i64 noundef %14, i64 noundef %15)
  store ptr %16, ptr %11, align 8, !tbaa !65
  %17 = load ptr, ptr %11, align 8, !tbaa !65
  %18 = load ptr, ptr %10, align 8, !tbaa !39
  %19 = call ptr @nd_set_loc(ptr noundef %17, ptr noundef %18)
  %20 = load ptr, ptr %6, align 8, !tbaa !7
  %21 = call i32 @parser_get_node_id(ptr noundef %20)
  %22 = load ptr, ptr %11, align 8, !tbaa !65
  %23 = getelementptr inbounds nuw %struct.RNode, ptr %22, i32 0, i32 2
  store i32 %21, ptr %23, align 8, !tbaa !641
  %24 = load ptr, ptr %11, align 8, !tbaa !65
  call void @llvm.lifetime.end.p0(i64 8, ptr %11) #26
  ret ptr %24
}

; Function Attrs: inlinehint nounwind sspstrong uwtable
define internal void @parser_show_error_line(ptr noundef %0, ptr noundef %1) #2 {
  %3 = alloca ptr, align 8
  %4 = alloca ptr, align 8
  %5 = alloca ptr, align 8
  %6 = alloca i32, align 4
  %7 = alloca i32, align 4
  store ptr %0, ptr %3, align 8, !tbaa !7
  store ptr %1, ptr %4, align 8, !tbaa !39
  call void @llvm.lifetime.start.p0(i64 8, ptr %5) #26
  call void @llvm.lifetime.start.p0(i64 4, ptr %6) #26
  %8 = load ptr, ptr %3, align 8, !tbaa !7
  %9 = getelementptr inbounds nuw %struct.parser_params, ptr %8, i32 0, i32 15
  %10 = load i32, ptr %9, align 4, !tbaa !82
  store i32 %10, ptr %6, align 4, !tbaa !34
  %11 = load ptr, ptr %4, align 8, !tbaa !39
  %12 = icmp ne ptr %11, null
  br i1 %12, label %14, label %13

13:                                               ; preds = %2
  store i32 1, ptr %7, align 4
  br label %36

14:                                               ; preds = %2
  %15 = load ptr, ptr %4, align 8, !tbaa !39
  %16 = getelementptr inbounds nuw %struct.rb_code_location_struct, ptr %15, i32 0, i32 0
  %17 = getelementptr inbounds nuw %struct.rb_code_position_struct, ptr %16, i32 0, i32 0
  %18 = load i32, ptr %17, align 4, !tbaa !173
  %19 = load i32, ptr %6, align 4, !tbaa !34
  %20 = icmp eq i32 %18, %19
  br i1 %20, label %21, label %26

21:                                               ; preds = %14
  %22 = load ptr, ptr %3, align 8, !tbaa !7
  %23 = getelementptr inbounds nuw %struct.parser_params, ptr %22, i32 0, i32 2
  %24 = getelementptr inbounds nuw %struct.anon.12, ptr %23, i32 0, i32 4
  %25 = load ptr, ptr %24, align 8, !tbaa !590
  store ptr %25, ptr %5, align 8, !tbaa !14
  br label %27

26:                                               ; preds = %14
  store i32 1, ptr %7, align 4
  br label %36

27:                                               ; preds = %21
  br label %28

28:                                               ; preds = %27
  %29 = load ptr, ptr %3, align 8, !tbaa !7
  %30 = load ptr, ptr %3, align 8, !tbaa !7
  %31 = getelementptr inbounds nuw %struct.parser_params, ptr %30, i32 0, i32 35
  %32 = load i64, ptr %31, align 8, !tbaa !453
  %33 = load ptr, ptr %4, align 8, !tbaa !39
  %34 = load i32, ptr %6, align 4, !tbaa !34
  %35 = load ptr, ptr %5, align 8, !tbaa !14
  call void @ruby_show_error_line(ptr noundef %29, i64 noundef %32, ptr noundef %33, i32 noundef %34, ptr noundef %35)
  store i32 0, ptr %7, align 4
  br label %36

36:                                               ; preds = %28, %26, %13
  call void @llvm.lifetime.end.p0(i64 4, ptr %6) #26
  call void @llvm.lifetime.end.p0(i64 8, ptr %5) #26
  %37 = load i32, ptr %7, align 4
  switch i32 %37, label %39 [
    i32 0, label %38
    i32 1, label %38
  ]

38:                                               ; preds = %36, %36
  ret void

39:                                               ; preds = %36
  unreachable
}

; Function Attrs: nounwind sspstrong uwtable
define internal ptr @rb_node_cdecl_new(ptr noundef %0, i64 noundef %1, ptr noundef %2, ptr noundef %3, i32 noundef %4, ptr noundef %5) #0 {
  %7 = alloca ptr, align 8
  %8 = alloca i64, align 8
  %9 = alloca ptr, align 8
  %10 = alloca ptr, align 8
  %11 = alloca i32, align 4
  %12 = alloca ptr, align 8
  %13 = alloca ptr, align 8
  store ptr %0, ptr %7, align 8, !tbaa !7
  store i64 %1, ptr %8, align 8, !tbaa !12
  store ptr %2, ptr %9, align 8, !tbaa !65
  store ptr %3, ptr %10, align 8, !tbaa !65
  store i32 %4, ptr %11, align 4, !tbaa !34
  store ptr %5, ptr %12, align 8, !tbaa !39
  call void @llvm.lifetime.start.p0(i64 8, ptr %13) #26
  %14 = load ptr, ptr %7, align 8, !tbaa !7
  %15 = load ptr, ptr %12, align 8, !tbaa !39
  %16 = call ptr @node_newnode(ptr noundef %14, i32 noundef 29, i64 noundef 64, i64 noundef 8, ptr noundef %15)
  store ptr %16, ptr %13, align 8, !tbaa !809
  %17 = load i64, ptr %8, align 8, !tbaa !12
  %18 = load ptr, ptr %13, align 8, !tbaa !809
  %19 = getelementptr inbounds nuw %struct.RNode_CDECL, ptr %18, i32 0, i32 1
  store i64 %17, ptr %19, align 8, !tbaa !811
  %20 = load ptr, ptr %9, align 8, !tbaa !65
  %21 = load ptr, ptr %13, align 8, !tbaa !809
  %22 = getelementptr inbounds nuw %struct.RNode_CDECL, ptr %21, i32 0, i32 2
  store ptr %20, ptr %22, align 8, !tbaa !386
  %23 = load ptr, ptr %10, align 8, !tbaa !65
  %24 = load ptr, ptr %13, align 8, !tbaa !809
  %25 = getelementptr inbounds nuw %struct.RNode_CDECL, ptr %24, i32 0, i32 3
  store ptr %23, ptr %25, align 8, !tbaa !812
  %26 = load i32, ptr %11, align 4, !tbaa !34
  %27 = load ptr, ptr %13, align 8, !tbaa !809
  %28 = getelementptr inbounds nuw %struct.RNode_CDECL, ptr %27, i32 0, i32 4
  store i32 %26, ptr %28, align 8, !tbaa !813
  %29 = load ptr, ptr %13, align 8, !tbaa !809
  call void @llvm.lifetime.end.p0(i64 8, ptr %13) #26
  ret ptr %29
}

; Function Attrs: nounwind sspstrong uwtable
define internal i32 @parser_yyerror(ptr noundef nonnull %0, ptr noundef nonnull %1, ptr noundef nonnull %2) #0 {
  %4 = alloca ptr, align 8
  %5 = alloca ptr, align 8
  %6 = alloca ptr, align 8
  store ptr %0, ptr %4, align 8, !tbaa !7
  store ptr %1, ptr %5, align 8, !tbaa !39
  store ptr %2, ptr %6, align 8, !tbaa !19
  %7 = load ptr, ptr %4, align 8, !tbaa !7
  %8 = load ptr, ptr %5, align 8, !tbaa !39
  %9 = load ptr, ptr %6, align 8, !tbaa !19
  call void (ptr, ptr, ptr, ...) @parser_compile_error(ptr noundef %7, ptr noundef %8, ptr noundef @.str.555, ptr noundef %9)
  %10 = load ptr, ptr %4, align 8, !tbaa !7
  %11 = load ptr, ptr %5, align 8, !tbaa !39
  call void @parser_show_error_line(ptr noundef %10, ptr noundef %11)
  ret i32 0
}

; Function Attrs: nounwind sspstrong uwtable
define internal ptr @const_decl(ptr noundef %0, ptr noundef %1, ptr noundef %2) #0 {
  %4 = alloca ptr, align 8
  %5 = alloca ptr, align 8
  %6 = alloca ptr, align 8
  store ptr %0, ptr %4, align 8, !tbaa !7
  store ptr %1, ptr %5, align 8, !tbaa !65
  store ptr %2, ptr %6, align 8, !tbaa !39
  %7 = load ptr, ptr %4, align 8, !tbaa !7
  %8 = getelementptr inbounds nuw %struct.parser_params, ptr %7, i32 0, i32 30
  %9 = load i16, ptr %8, align 8
  %10 = lshr i16 %9, 3
  %11 = and i16 %10, 1
  %12 = zext i16 %11 to i32
  %13 = icmp ne i32 %12, 0
  br i1 %13, label %14, label %18

14:                                               ; preds = %3
  %15 = load ptr, ptr %4, align 8, !tbaa !7
  %16 = load ptr, ptr %6, align 8, !tbaa !39
  %17 = call i32 @parser_yyerror(ptr noundef %15, ptr noundef %16, ptr noundef @.str.888)
  br label %18

18:                                               ; preds = %14, %3
  %19 = load ptr, ptr %4, align 8, !tbaa !7
  %20 = load ptr, ptr %5, align 8, !tbaa !65
  %21 = load ptr, ptr %4, align 8, !tbaa !7
  %22 = getelementptr inbounds nuw %struct.parser_params, ptr %21, i32 0, i32 30
  %23 = load i16, ptr %22, align 8
  %24 = lshr i16 %23, 5
  %25 = and i16 %24, 3
  %26 = zext i16 %25 to i32
  %27 = load ptr, ptr %6, align 8, !tbaa !39
  %28 = call ptr @rb_node_cdecl_new(ptr noundef %19, i64 noundef 0, ptr noundef null, ptr noundef %20, i32 noundef %26, ptr noundef %27)
  ret ptr %28
}