; Function Attrs: nounwind sspstrong uwtable
define internal fastcc noundef ptr @const_decl(ptr noundef captures(none) %0, ptr noundef %1, ptr noundef nonnull captures(address_is_null) %2) unnamed_addr #0 {
  %4 = getelementptr inbounds nuw i8, ptr %0, i64 328
  %5 = load i16, ptr %4, align 8
  %6 = and i16 %5, 8
  %.not = icmp eq i16 %6, 0
  br i1 %.not, label %parser_yyerror.exit, label %7

7:                                                ; preds = %3
  tail call void (ptr, ptr, ptr, ...) @parser_compile_error(ptr noundef nonnull %0, ptr noundef nonnull %2, ptr noundef nonnull @.str.555, ptr noundef nonnull @.str.888)
  %8 = getelementptr inbounds nuw i8, ptr %0, i64 196
  %9 = load i32, ptr %8, align 4, !tbaa !31
  %10 = load i32, ptr %2, align 4, !tbaa !53
  %11 = icmp eq i32 %10, %9
  br i1 %11, label %12, label %parser_yyerror.exit

12:                                               ; preds = %7
  %13 = getelementptr inbounds nuw i8, ptr %0, i64 56
  %14 = load ptr, ptr %13, align 8, !tbaa !185
  %15 = getelementptr inbounds nuw i8, ptr %0, i64 368
  %16 = load i64, ptr %15, align 8, !tbaa !186
  tail call void @ruby_show_error_line(ptr nonnull readonly poison, i64 noundef %16, ptr noundef nonnull %2, i32 noundef %9, ptr noundef %14)
  br label %parser_yyerror.exit

parser_yyerror.exit:                              ; preds = %12, %7, %3
  %17 = load i16, ptr %4, align 8
  %18 = lshr i16 %17, 5
  %19 = and i16 %18, 3
  %20 = zext nneg i16 %19 to i32
  %21 = getelementptr i8, ptr %0, i64 288
  %.val.i.i = load ptr, ptr %21, align 8, !tbaa !130
  %22 = tail call ptr @rb_ast_newnode(ptr noundef %.val.i.i, i32 noundef range(i32 0, 115) 29, i64 noundef range(i64 32, 129) 64, i64 noundef 8) #35
  tail call void @rb_node_init(ptr noundef %22, i32 noundef range(i32 0, 115) 29) #35
  %23 = getelementptr inbounds nuw i8, ptr %22, i64 8
  tail call void @llvm.memcpy.p0.p0.i64(ptr noundef nonnull align 8 dereferenceable(16) %23, ptr noundef nonnull readonly align 4 dereferenceable(16) %2, i64 16, i1 false), !tbaa.struct !59
  %24 = load i32, ptr %2, align 4, !tbaa !53
  %25 = sext i32 %24 to i64
  %26 = load i64, ptr %22, align 8, !tbaa !72
  %27 = and i64 %26, 32767
  %28 = shl nsw i64 %25, 15
  %29 = or disjoint i64 %27, %28
  store i64 %29, ptr %22, align 8, !tbaa !72
  %30 = getelementptr inbounds nuw i8, ptr %0, i64 296
  %31 = load i32, ptr %30, align 8, !tbaa !207
  %32 = add i32 %31, 1
  store i32 %32, ptr %30, align 8, !tbaa !207
  %33 = getelementptr inbounds nuw i8, ptr %22, i64 24
  store i32 %31, ptr %33, align 8, !tbaa !208
  %34 = getelementptr inbounds nuw i8, ptr %22, i64 32
  %35 = getelementptr inbounds nuw i8, ptr %22, i64 48
  tail call void @llvm.memset.p0.i64(ptr noundef nonnull align 8 dereferenceable(16) %34, i8 0, i64 16, i1 false)
  store ptr %1, ptr %35, align 8, !tbaa !331
  %36 = getelementptr inbounds nuw i8, ptr %22, i64 56
  store i32 %20, ptr %36, align 8, !tbaa !332
  ret ptr %22
}